target datalayout = "e-m:e-p270:32:32-p271:32:32-p272:64:64-i64:64-i128:128-f80:128-n8:16:32:64-S128"
target triple = "x86_64-pc-linux-gnu"

; Function Attrs: inlinehint nounwind uwtable
define internal void @rgb24tobgr24_c(ptr noundef %0, ptr noundef %1, i32 noundef %2) #4 {
  %4 = alloca ptr, align 8
  %5 = alloca ptr, align 8
  %6 = alloca i32, align 4
  %7 = alloca i32, align 4
  %8 = alloca i8, align 1
  store ptr %0, ptr %4, align 8, !tbaa !4
  store ptr %1, ptr %5, align 8, !tbaa !4
  store i32 %2, ptr %6, align 4, !tbaa !9
  call void @llvm.lifetime.start.p0(i64 4, ptr %7) #5
  store i32 0, ptr %7, align 4, !tbaa !9
  br label %9

9:                                                ; preds = %48, %3
  %10 = load i32, ptr %7, align 4, !tbaa !9
  %11 = load i32, ptr %6, align 4, !tbaa !9
  %12 = icmp ult i32 %10, %11
  br i1 %12, label %13, label %51

13:                                               ; preds = %9
  call void @llvm.lifetime.start.p0(i64 1, ptr %8) #5
  %14 = load ptr, ptr %4, align 8, !tbaa !4
  %15 = load i32, ptr %7, align 4, !tbaa !9
  %16 = add i32 %15, 2
  %17 = zext i32 %16 to i64
  %18 = getelementptr inbounds nuw i8, ptr %14, i64 %17
  %19 = load i8, ptr %18, align 1, !tbaa !13
  store i8 %19, ptr %8, align 1, !tbaa !13
  %20 = load ptr, ptr %4, align 8, !tbaa !4
  %21 = load i32, ptr %7, align 4, !tbaa !9
  %22 = add i32 %21, 1
  %23 = zext i32 %22 to i64
  %24 = getelementptr inbounds nuw i8, ptr %20, i64 %23
  %25 = load i8, ptr %24, align 1, !tbaa !13
  %26 = load ptr, ptr %5, align 8, !tbaa !4
  %27 = load i32, ptr %7, align 4, !tbaa !9
  %28 = add i32 %27, 1
  %29 = zext i32 %28 to i64
  %30 = getelementptr inbounds nuw i8, ptr %26, i64 %29
  store i8 %25, ptr %30, align 1, !tbaa !13
  %31 = load ptr, ptr %4, align 8, !tbaa !4
  %32 = load i32, ptr %7, align 4, !tbaa !9
  %33 = add i32 %32, 0
  %34 = zext i32 %33 to i64
  %35 = getelementptr inbounds nuw i8, ptr %31, i64 %34
  %36 = load i8, ptr %35, align 1, !tbaa !13
  %37 = load ptr, ptr %5, align 8, !tbaa !4
  %38 = load i32, ptr %7, align 4, !tbaa !9
  %39 = add i32 %38, 2
  %40 = zext i32 %39 to i64
  %41 = getelementptr inbounds nuw i8, ptr %37, i64 %40
  store i8 %36, ptr %41, align 1, !tbaa !13
  %42 = load i8, ptr %8, align 1, !tbaa !13
  %43 = load ptr, ptr %5, align 8, !tbaa !4
  %44 = load i32, ptr %7, align 4, !tbaa !9
  %45 = add i32 %44, 0
  %46 = zext i32 %45 to i64
  %47 = getelementptr inbounds nuw i8, ptr %43, i64 %46
  store i8 %42, ptr %47, align 1, !tbaa !13
  call void @llvm.lifetime.end.p0(i64 1, ptr %8) #5
  br label %48

48:                                               ; preds = %13
  %49 = load i32, ptr %7, align 4, !tbaa !9
  %50 = add i32 %49, 3
  store i32 %50, ptr %7, align 4, !tbaa !9
  br label %9, !llvm.loop !66

51:                                               ; preds = %9
  call void @llvm.lifetime.end.p0(i64 4, ptr %7) #5
  ret void
}