; Function Attrs: inlinehint nofree norecurse nosync nounwind memory(argmem: readwrite) uwtable
define internal void @rgb24tobgr24_c(ptr noundef readonly captures(none) %0, ptr noundef writeonly captures(none) %1, i32 noundef %2) #3 {
  %.not = icmp eq i32 %2, 0
  br i1 %.not, label %._crit_edge, label %.lr.ph

.lr.ph:                                           ; preds = %3, %.lr.ph
  %.015 = phi i32 [ %18, %.lr.ph ], [ 0, %3 ]
  %4 = add i32 %.015, 2
  %5 = zext i32 %4 to i64
  %6 = getelementptr inbounds nuw i8, ptr %0, i64 %5
  %7 = load i8, ptr %6, align 1, !tbaa !8
  %8 = add nuw i32 %.015, 1
  %9 = zext i32 %8 to i64
  %10 = getelementptr inbounds nuw i8, ptr %0, i64 %9
  %11 = load i8, ptr %10, align 1, !tbaa !8
  %12 = getelementptr inbounds nuw i8, ptr %1, i64 %9
  store i8 %11, ptr %12, align 1, !tbaa !8
  %13 = zext i32 %.015 to i64
  %14 = getelementptr inbounds nuw i8, ptr %0, i64 %13
  %15 = load i8, ptr %14, align 1, !tbaa !8
  %16 = getelementptr inbounds nuw i8, ptr %1, i64 %5
  store i8 %15, ptr %16, align 1, !tbaa !8
  %17 = getelementptr inbounds nuw i8, ptr %1, i64 %13
  store i8 %7, ptr %17, align 1, !tbaa !8
  %18 = add i32 %.015, 3
  %19 = icmp ult i32 %18, %2
  br i1 %19, label %.lr.ph, label %._crit_edge, !llvm.loop !60

._crit_edge:                                      ; preds = %.lr.ph, %3
  ret void
}